; Function Attrs: mustprogress nofree norecurse nosync nounwind willreturn memory(read, inaccessiblemem: none) uwtable
define hidden noundef zeroext i1 @_ZNK3euf13th_euf_solver18is_attached_to_varEPNS_5enodeE(ptr nocapture noundef nonnull readonly align 8 dereferenceable(108) %this, ptr noundef readonly %n) local_unnamed_addr #7 align 2 {
entry:
  %m_id.i = getelementptr inbounds i8, ptr %this, i64 12
  %0 = load i32, ptr %m_id.i, align 4
  %m_th_vars.i = getelementptr inbounds i8, ptr %n, i64 88
  %bf.load.i.i.i.i = load i32, ptr %m_th_vars.i, align 8
  %cmp.i.i.i = icmp ugt i32 %bf.load.i.i.i.i, -257
  br i1 %cmp.i.i.i, label %land.end, label %do.body.i.i

do.body.i.i:                                      ; preds = %entry, %if.end5.i.i
  %l.0.i.i = phi ptr [ %1, %if.end5.i.i ], [ %m_th_vars.i, %entry ]
  %bf.load.i.i.i = load i32, ptr %l.0.i.i, align 8
  %bf.shl.i.i.i = shl i32 %bf.load.i.i.i, 24
  %bf.ashr.i.i.i = ashr exact i32 %bf.shl.i.i.i, 24
  %cmp.i.i = icmp eq i32 %bf.ashr.i.i.i, %0
  br i1 %cmp.i.i, label %_ZNK3euf5enode10get_th_varEi.exit, label %if.end5.i.i

if.end5.i.i:                                      ; preds = %do.body.i.i
  %m_next.i.i.i = getelementptr inbounds i8, ptr %l.0.i.i, i64 8
  %1 = load ptr, ptr %m_next.i.i.i, align 8
  %tobool.not.i.i = icmp eq ptr %1, null
  br i1 %tobool.not.i.i, label %land.end, label %do.body.i.i, !llvm.loop !12

_ZNK3euf5enode10get_th_varEi.exit:                ; preds = %do.body.i.i
  %bf.ashr.i5.i.i = ashr i32 %bf.load.i.i.i, 8
  %cmp.not = icmp eq i32 %bf.ashr.i5.i.i, -1
  br i1 %cmp.not, label %land.end, label %land.rhs

land.rhs:                                         ; preds = %_ZNK3euf5enode10get_th_varEi.exit
  %m_var2enode.i = getelementptr inbounds i8, ptr %this, i64 88
  %2 = load ptr, ptr %m_var2enode.i, align 8
  %idxprom.i.i = zext i32 %bf.ashr.i5.i.i to i64
  %arrayidx.i.i = getelementptr inbounds ptr, ptr %2, i64 %idxprom.i.i
  %3 = load ptr, ptr %arrayidx.i.i, align 8
  %cmp4 = icmp eq ptr %3, %n
  br label %land.end

land.end:                                         ; preds = %if.end5.i.i, %entry, %land.rhs, %_ZNK3euf5enode10get_th_varEi.exit
  %4 = phi i1 [ false, %_ZNK3euf5enode10get_th_varEi.exit ], [ %cmp4, %land.rhs ], [ false, %entry ], [ false, %if.end5.i.i ]
  ret i1 %4
}